target datalayout = "e-m:e-p270:32:32-p271:32:32-p272:64:64-i64:64-i128:128-f80:128-n8:16:32:64-S128"
target triple = "x86_64-pc-linux-gnu"

%struct.Vmem = type { ptr, i64, i64 }
%struct.ParseContext_ = type { %struct.TokenData, i32, %union.SourceSpan, %union.SourceSpan, ptr, %struct.Lexer }
%struct.TokenData = type { ptr, i64, %union.anon.86 }
%union.anon.86 = type { %struct.anon.89 }
%struct.anon.89 = type { %struct.Int128_, i8 }
%struct.Int128_ = type { i64, i64 }
%union.SourceSpan = type { i64 }
%struct.Lexer = type { ptr, ptr, ptr, ptr, i32, i32, ptr, ptr, ptr, %struct.TokenData, %union.SourceSpan, i32, i32 }
%struct.Expr_ = type { ptr, %union.SourceSpan, i16, %union.anon.30 }
%union.anon.30 = type { %struct.ExprAnySwitch }
%struct.ExprAnySwitch = type { i8, %union.anon.32 }
%union.anon.32 = type { %struct.anon.33 }
%struct.anon.33 = type { ptr, %union.SourceSpan, ptr }
%struct.anon.0 = type { i16, i8, i8, i32 }
%struct.ExprCastable = type { i8, i32, i32 }

@poisoned_expr = external global ptr, align 8
@expr_arena = external global %struct.Vmem, align 8
@.str.22 = private unnamed_addr constant [15 x i8] c"Expected '%s'.\00", align 1
@type_info_arena = external global %struct.Vmem, align 8

; Function Attrs: nounwind uwtable
define internal i64 @extend_span_with_token(i64 %0, i64 %1) #0 {
  %3 = alloca %union.SourceSpan, align 8
  %4 = alloca %union.SourceSpan, align 8
  %5 = alloca %union.SourceSpan, align 8
  %6 = getelementptr inbounds %union.SourceSpan, ptr %4, i32 0, i32 0
  store i64 %0, ptr %6, align 8
  %7 = getelementptr inbounds %union.SourceSpan, ptr %5, i32 0, i32 0
  store i64 %1, ptr %7, align 8
  %8 = getelementptr inbounds %struct.anon.0, ptr %4, i32 0, i32 3
  %9 = load i32, ptr %8, align 4
  %10 = getelementptr inbounds %struct.anon.0, ptr %5, i32 0, i32 3
  %11 = load i32, ptr %10, align 4
  %12 = icmp ne i32 %9, %11
  br i1 %12, label %13, label %14

13:                                               ; preds = %2
  call void @llvm.memcpy.p0.p0.i64(ptr align 8 %3, ptr align 8 %4, i64 8, i1 false)
  br label %28

14:                                               ; preds = %2
  %15 = getelementptr inbounds %struct.anon.0, ptr %5, i32 0, i32 2
  %16 = load i8, ptr %15, align 1
  %17 = zext i8 %16 to i32
  %18 = getelementptr inbounds %struct.anon.0, ptr %5, i32 0, i32 1
  %19 = load i8, ptr %18, align 2
  %20 = zext i8 %19 to i32
  %21 = add nsw i32 %17, %20
  %22 = getelementptr inbounds %struct.anon.0, ptr %4, i32 0, i32 2
  %23 = load i8, ptr %22, align 1
  %24 = zext i8 %23 to i32
  %25 = sub nsw i32 %21, %24
  %26 = trunc i32 %25 to i8
  %27 = getelementptr inbounds %struct.anon.0, ptr %4, i32 0, i32 1
  store i8 %26, ptr %27, align 2
  call void @llvm.memcpy.p0.p0.i64(ptr align 8 %3, ptr align 8 %4, i64 8, i1 false)
  br label %28

28:                                               ; preds = %14, %13
  %29 = getelementptr inbounds %union.SourceSpan, ptr %3, i32 0, i32 0
  %30 = load i64, ptr %29, align 8
  ret i64 %30
}

; Function Attrs: nounwind uwtable
define internal i32 @type_infoid(ptr noundef %0) #0 {
  %2 = alloca ptr, align 8
  store ptr %0, ptr %2, align 8
  %3 = load ptr, ptr %2, align 8
  %4 = load ptr, ptr @type_info_arena, align 8
  %5 = ptrtoint ptr %3 to i64
  %6 = ptrtoint ptr %4 to i64
  %7 = sub i64 %5, %6
  %8 = sdiv exact i64 %7, 40
  %9 = trunc i64 %8 to i32
  ret i32 %9
}

; Function Attrs: nounwind uwtable
define internal i32 @exprid(ptr noundef %0) #0 {
  %2 = alloca ptr, align 8
  store ptr %0, ptr %2, align 8
  %3 = load ptr, ptr %2, align 8
  %4 = load ptr, ptr @expr_arena, align 8
  %5 = ptrtoint ptr %3 to i64
  %6 = ptrtoint ptr %4 to i64
  %7 = sub i64 %5, %6
  %8 = sdiv exact i64 %7, 56
  %9 = trunc i64 %8 to i32
  ret i32 %9
}

; Function Attrs: nounwind uwtable
define dso_local ptr @parse_expr(ptr noundef %0) #0 {
  %2 = alloca ptr, align 8
  store ptr %0, ptr %2, align 8
  %3 = load ptr, ptr %2, align 8
  %4 = call ptr @parse_precedence(ptr noundef %3, i32 noundef 1)
  ret ptr %4
}

; Function Attrs: nounwind uwtable
define internal ptr @parse_ct_castable(ptr noundef %0, ptr noundef %1) #0 {
  %3 = alloca ptr, align 8
  %4 = alloca ptr, align 8
  %5 = alloca i32, align 4
  %6 = alloca i1, align 1
  %7 = alloca ptr, align 8
  %8 = alloca i32, align 4
  %9 = alloca ptr, align 8
  %10 = alloca i32, align 4
  %11 = alloca i1, align 1
  %12 = alloca ptr, align 8
  %13 = alloca i32, align 4
  %14 = alloca ptr, align 8
  %15 = alloca i32, align 4
  %16 = alloca i1, align 1
  %17 = alloca ptr, align 8
  %18 = alloca i32, align 4
  %19 = alloca ptr, align 8
  %20 = alloca ptr, align 8
  %21 = alloca ptr, align 8
  %22 = alloca ptr, align 8
  %23 = alloca ptr, align 8
  %24 = alloca ptr, align 8
  %25 = alloca ptr, align 8
  %26 = alloca %union.SourceSpan, align 8
  store ptr %0, ptr %21, align 8
  store ptr %1, ptr %22, align 8
  %27 = load ptr, ptr %21, align 8
  %28 = getelementptr inbounds %struct.ParseContext_, ptr %27, i32 0, i32 2
  %29 = getelementptr inbounds %union.SourceSpan, ptr %28, i32 0, i32 0
  %30 = load i64, ptr %29, align 8
  %31 = call ptr @expr_new(i32 noundef 18, i64 %30)
  store ptr %31, ptr %23, align 8
  %32 = load ptr, ptr %21, align 8
  %33 = getelementptr inbounds %struct.ParseContext_, ptr %32, i32 0, i32 1
  %34 = load i32, ptr %33, align 8
  %35 = icmp eq i32 %34, 148
  %36 = load ptr, ptr %23, align 8
  %37 = getelementptr inbounds %struct.Expr_, ptr %36, i32 0, i32 3
  %38 = getelementptr inbounds %struct.ExprCastable, ptr %37, i32 0, i32 0
  %39 = zext i1 %35 to i8
  store i8 %39, ptr %38, align 8
  %40 = load ptr, ptr %21, align 8
  call void @advance(ptr noundef %40)
  br label %41

41:                                               ; preds = %2
  %42 = load ptr, ptr %21, align 8
  store ptr %42, ptr %7, align 8
  store i32 19, ptr %8, align 4
  %43 = load ptr, ptr %7, align 8
  %44 = load i32, ptr %8, align 4
  store ptr %43, ptr %4, align 8
  store i32 %44, ptr %5, align 4
  %45 = load ptr, ptr %4, align 8
  %46 = getelementptr inbounds %struct.ParseContext_, ptr %45, i32 0, i32 1
  %47 = load i32, ptr %46, align 8
  %48 = load i32, ptr %5, align 4
  %49 = icmp eq i32 %47, %48
  br i1 %49, label %50, label %51

50:                                               ; preds = %41
  store i1 true, ptr %6, align 1
  br label %57

51:                                               ; preds = %41
  %52 = load ptr, ptr %7, align 8
  %53 = getelementptr inbounds %struct.ParseContext_, ptr %52, i32 0, i32 2
  %54 = load i32, ptr %8, align 4
  %55 = call ptr @token_type_to_string(i32 noundef %54) #5
  %56 = load i64, ptr %53, align 8
  call void (i64, ptr, ...) @sema_error_at(i64 %56, ptr noundef @.str.22, ptr noundef %55) #5
  store i1 false, ptr %6, align 1
  br label %57

57:                                               ; preds = %51, %50
  %58 = load i1, ptr %6, align 1
  br i1 %58, label %61, label %59

59:                                               ; preds = %57
  %60 = load ptr, ptr @poisoned_expr, align 8
  store ptr %60, ptr %20, align 8
  br label %169

61:                                               ; preds = %57
  %62 = load ptr, ptr %21, align 8
  call void @advance(ptr noundef %62)
  br label %63

63:                                               ; preds = %61
  %64 = load ptr, ptr %21, align 8
  %65 = call ptr @parse_expr(ptr noundef %64)
  store ptr %65, ptr %24, align 8
  %66 = load ptr, ptr %24, align 8
  store ptr %66, ptr %19, align 8
  %67 = load ptr, ptr %19, align 8
  %68 = icmp eq ptr %67, null
  br i1 %68, label %76, label %69

69:                                               ; preds = %63
  %70 = load ptr, ptr %19, align 8
  %71 = getelementptr inbounds %struct.Expr_, ptr %70, i32 0, i32 2
  %72 = load i16, ptr %71, align 8
  %73 = and i16 %72, 255
  %74 = zext i16 %73 to i32
  %75 = icmp ne i32 %74, 0
  br label %76

76:                                               ; preds = %69, %63
  %77 = phi i1 [ true, %63 ], [ %75, %69 ]
  br i1 %77, label %80, label %78

78:                                               ; preds = %76
  %79 = load ptr, ptr @poisoned_expr, align 8
  store ptr %79, ptr %20, align 8
  br label %169

80:                                               ; preds = %76
  %81 = load ptr, ptr %24, align 8
  %82 = call i32 @exprid(ptr noundef %81)
  %83 = load ptr, ptr %23, align 8
  %84 = getelementptr inbounds %struct.Expr_, ptr %83, i32 0, i32 3
  %85 = getelementptr inbounds %struct.ExprCastable, ptr %84, i32 0, i32 1
  store i32 %82, ptr %85, align 4
  br label %86

86:                                               ; preds = %80
  %87 = load ptr, ptr %21, align 8
  store ptr %87, ptr %12, align 8
  store i32 8, ptr %13, align 4
  %88 = load ptr, ptr %12, align 8
  %89 = load i32, ptr %13, align 4
  store ptr %88, ptr %9, align 8
  store i32 %89, ptr %10, align 4
  %90 = load ptr, ptr %9, align 8
  %91 = getelementptr inbounds %struct.ParseContext_, ptr %90, i32 0, i32 1
  %92 = load i32, ptr %91, align 8
  %93 = load i32, ptr %10, align 4
  %94 = icmp eq i32 %92, %93
  br i1 %94, label %95, label %96

95:                                               ; preds = %86
  store i1 true, ptr %11, align 1
  br label %102

96:                                               ; preds = %86
  %97 = load ptr, ptr %12, align 8
  %98 = getelementptr inbounds %struct.ParseContext_, ptr %97, i32 0, i32 2
  %99 = load i32, ptr %13, align 4
  %100 = call ptr @token_type_to_string(i32 noundef %99) #5
  %101 = load i64, ptr %98, align 8
  call void (i64, ptr, ...) @sema_error_at(i64 %101, ptr noundef @.str.22, ptr noundef %100) #5
  store i1 false, ptr %11, align 1
  br label %102

102:                                              ; preds = %96, %95
  %103 = load i1, ptr %11, align 1
  br i1 %103, label %106, label %104

104:                                              ; preds = %102
  %105 = load ptr, ptr @poisoned_expr, align 8
  store ptr %105, ptr %20, align 8
  br label %169

106:                                              ; preds = %102
  %107 = load ptr, ptr %21, align 8
  call void @advance(ptr noundef %107)
  br label %108

108:                                              ; preds = %106
  %109 = load ptr, ptr %21, align 8
  %110 = call ptr @parse_type(ptr noundef %109)
  store ptr %110, ptr %25, align 8
  %111 = load ptr, ptr %25, align 8
  store ptr %111, ptr %3, align 8
  %112 = load ptr, ptr %3, align 8
  %113 = icmp ne ptr %112, null
  br i1 %113, label %114, label %121

114:                                              ; preds = %108
  %115 = load ptr, ptr %3, align 8
  %116 = load i16, ptr %115, align 8
  %117 = lshr i16 %116, 3
  %118 = and i16 %117, 63
  %119 = zext i16 %118 to i32
  %120 = icmp ne i32 %119, 0
  br label %121

121:                                              ; preds = %114, %108
  %122 = phi i1 [ true, %108 ], [ %120, %114 ]
  br i1 %122, label %125, label %123

123:                                              ; preds = %121
  %124 = load ptr, ptr @poisoned_expr, align 8
  store ptr %124, ptr %20, align 8
  br label %169

125:                                              ; preds = %121
  %126 = load ptr, ptr %25, align 8
  %127 = call i32 @type_infoid(ptr noundef %126)
  %128 = load ptr, ptr %23, align 8
  %129 = getelementptr inbounds %struct.Expr_, ptr %128, i32 0, i32 3
  %130 = getelementptr inbounds %struct.ExprCastable, ptr %129, i32 0, i32 2
  store i32 %127, ptr %130, align 8
  br label %131

131:                                              ; preds = %125
  %132 = load ptr, ptr %21, align 8
  store ptr %132, ptr %17, align 8
  store i32 26, ptr %18, align 4
  %133 = load ptr, ptr %17, align 8
  %134 = load i32, ptr %18, align 4
  store ptr %133, ptr %14, align 8
  store i32 %134, ptr %15, align 4
  %135 = load ptr, ptr %14, align 8
  %136 = getelementptr inbounds %struct.ParseContext_, ptr %135, i32 0, i32 1
  %137 = load i32, ptr %136, align 8
  %138 = load i32, ptr %15, align 4
  %139 = icmp eq i32 %137, %138
  br i1 %139, label %140, label %141

140:                                              ; preds = %131
  store i1 true, ptr %16, align 1
  br label %147

141:                                              ; preds = %131
  %142 = load ptr, ptr %17, align 8
  %143 = getelementptr inbounds %struct.ParseContext_, ptr %142, i32 0, i32 2
  %144 = load i32, ptr %18, align 4
  %145 = call ptr @token_type_to_string(i32 noundef %144) #5
  %146 = load i64, ptr %143, align 8
  call void (i64, ptr, ...) @sema_error_at(i64 %146, ptr noundef @.str.22, ptr noundef %145) #5
  store i1 false, ptr %16, align 1
  br label %147

147:                                              ; preds = %141, %140
  %148 = load i1, ptr %16, align 1
  br i1 %148, label %151, label %149

149:                                              ; preds = %147
  %150 = load ptr, ptr @poisoned_expr, align 8
  store ptr %150, ptr %20, align 8
  br label %169

151:                                              ; preds = %147
  %152 = load ptr, ptr %21, align 8
  call void @advance(ptr noundef %152)
  br label %153

153:                                              ; preds = %151
  br label %154

154:                                              ; preds = %153
  %155 = load ptr, ptr %23, align 8
  %156 = getelementptr inbounds %struct.Expr_, ptr %155, i32 0, i32 1
  %157 = load ptr, ptr %23, align 8
  %158 = getelementptr inbounds %struct.Expr_, ptr %157, i32 0, i32 1
  %159 = load ptr, ptr %21, align 8
  %160 = getelementptr inbounds %struct.ParseContext_, ptr %159, i32 0, i32 3
  %161 = getelementptr inbounds %union.SourceSpan, ptr %158, i32 0, i32 0
  %162 = load i64, ptr %161, align 8
  %163 = getelementptr inbounds %union.SourceSpan, ptr %160, i32 0, i32 0
  %164 = load i64, ptr %163, align 8
  %165 = call i64 @extend_span_with_token(i64 %162, i64 %164)
  %166 = getelementptr inbounds %union.SourceSpan, ptr %26, i32 0, i32 0
  store i64 %165, ptr %166, align 8
  call void @llvm.memcpy.p0.p0.i64(ptr align 8 %156, ptr align 8 %26, i64 8, i1 false)
  br label %167

167:                                              ; preds = %154
  %168 = load ptr, ptr %23, align 8
  store ptr %168, ptr %20, align 8
  br label %169

169:                                              ; preds = %167, %149, %123, %104, %78, %59
  %170 = load ptr, ptr %20, align 8
  ret ptr %170
}