; Function Attrs: nounwind uwtable
define internal ptr @parse_ct_castable(ptr noundef %0, ptr nocapture readnone %1) #1 {
  %3 = getelementptr inbounds i8, ptr %0, i64 48
  %4 = load i64, ptr %3, align 8
  %5 = tail call ptr @expr_new(i32 noundef 18, i64 %4) #8
  %6 = getelementptr inbounds i8, ptr %0, i64 40
  %7 = load i32, ptr %6, align 8
  %8 = icmp eq i32 %7, 148
  %9 = getelementptr inbounds i8, ptr %5, i64 24
  %10 = zext i1 %8 to i8
  store i8 %10, ptr %9, align 8
  tail call void @advance(ptr noundef %0) #8
  %11 = load i32, ptr %6, align 8
  %12 = icmp eq i32 %11, 19
  br i1 %12, label %.critedge61, label %13

13:                                               ; preds = %2
  %14 = tail call ptr @token_type_to_string(i32 noundef 19) #8
  %15 = load i64, ptr %3, align 8
  tail call void (i64, ptr, ...) @sema_error_at(i64 %15, ptr noundef nonnull @.str.22, ptr noundef %14) #8
  %16 = load ptr, ptr @poisoned_expr, align 8
  br label %65

.critedge61:                                      ; preds = %2
  tail call void @advance(ptr noundef nonnull %0) #8
  %17 = tail call fastcc ptr @parse_precedence(ptr noundef nonnull %0, i32 noundef 1)
  %18 = icmp eq ptr %17, null
  br i1 %18, label %.critedge, label %19

19:                                               ; preds = %.critedge61
  %20 = getelementptr inbounds i8, ptr %17, i64 16
  %21 = load i16, ptr %20, align 8
  %22 = and i16 %21, 255
  %.not = icmp eq i16 %22, 0
  br i1 %.not, label %24, label %.split

.split:                                           ; preds = %19
  %23 = ptrtoint ptr %17 to i64
  br label %.critedge

24:                                               ; preds = %19
  %25 = load ptr, ptr @poisoned_expr, align 8
  br label %65

.critedge:                                        ; preds = %.critedge61, %.split
  %.sink = phi i64 [ %23, %.split ], [ 0, %.critedge61 ]
  %.sink67 = load ptr, ptr @expr_arena, align 8
  %26 = ptrtoint ptr %.sink67 to i64
  %27 = sub i64 %.sink, %26
  %phi.call.in = sdiv exact i64 %27, 56
  %phi.call = trunc i64 %phi.call.in to i32
  %28 = getelementptr inbounds i8, ptr %5, i64 28
  store i32 %phi.call, ptr %28, align 4
  %29 = load i32, ptr %6, align 8
  %30 = icmp eq i32 %29, 8
  br i1 %30, label %.critedge63, label %31

31:                                               ; preds = %.critedge
  %32 = tail call ptr @token_type_to_string(i32 noundef 8) #8
  %33 = load i64, ptr %3, align 8
  tail call void (i64, ptr, ...) @sema_error_at(i64 %33, ptr noundef nonnull @.str.22, ptr noundef %32) #8
  %34 = load ptr, ptr @poisoned_expr, align 8
  br label %65

.critedge63:                                      ; preds = %.critedge
  tail call void @advance(ptr noundef nonnull %0) #8
  %35 = tail call ptr @parse_type(ptr noundef nonnull %0) #8
  %.not58 = icmp eq ptr %35, null
  br i1 %.not58, label %.critedge2, label %36

36:                                               ; preds = %.critedge63
  %37 = load i16, ptr %35, align 8
  %38 = and i16 %37, 504
  %.not59 = icmp eq i16 %38, 0
  br i1 %.not59, label %40, label %.split53

.split53:                                         ; preds = %36
  %39 = ptrtoint ptr %35 to i64
  br label %.critedge2

40:                                               ; preds = %36
  %41 = load ptr, ptr @poisoned_expr, align 8
  br label %65

.critedge2:                                       ; preds = %.critedge63, %.split53
  %.sink68 = phi i64 [ %39, %.split53 ], [ 0, %.critedge63 ]
  %.sink70 = load ptr, ptr @type_info_arena, align 8
  %42 = ptrtoint ptr %.sink70 to i64
  %43 = sub i64 %.sink68, %42
  %phi.call55.in = sdiv exact i64 %43, 40
  %phi.call55 = trunc i64 %phi.call55.in to i32
  %44 = getelementptr inbounds i8, ptr %5, i64 32
  store i32 %phi.call55, ptr %44, align 8
  %45 = load i32, ptr %6, align 8
  %46 = icmp eq i32 %45, 26
  br i1 %46, label %.critedge65, label %47

47:                                               ; preds = %.critedge2
  %48 = tail call ptr @token_type_to_string(i32 noundef 26) #8
  %49 = load i64, ptr %3, align 8
  tail call void (i64, ptr, ...) @sema_error_at(i64 %49, ptr noundef nonnull @.str.22, ptr noundef %48) #8
  %50 = load ptr, ptr @poisoned_expr, align 8
  br label %65

.critedge65:                                      ; preds = %.critedge2
  tail call void @advance(ptr noundef nonnull %0) #8
  %51 = getelementptr inbounds i8, ptr %5, i64 8
  %52 = getelementptr inbounds i8, ptr %0, i64 56
  %53 = load i64, ptr %51, align 8
  %54 = load i64, ptr %52, align 8
  %.not.unshifted.i = xor i64 %54, %53
  %.not.i = icmp ult i64 %.not.unshifted.i, 4294967296
  br i1 %.not.i, label %56, label %55

55:                                               ; preds = %.critedge65
  %.sroa.33.0.extract.shift.i = lshr i64 %53, 16
  br label %extend_span_with_token.exit

56:                                               ; preds = %.critedge65
  %.sroa.4.0.extract.shift.i = lshr i64 %53, 24
  %57 = trunc i64 %54 to i32
  %58 = lshr i32 %57, 24
  %59 = lshr i32 %57, 16
  %60 = trunc i64 %.sroa.4.0.extract.shift.i to i32
  %61 = sub i32 %59, %60
  %62 = add i32 %61, %58
  %63 = zext i32 %62 to i64
  br label %extend_span_with_token.exit

extend_span_with_token.exit:                      ; preds = %55, %56
  %.sroa.311.0.i = phi i64 [ %.sroa.33.0.extract.shift.i, %55 ], [ %63, %56 ]
  %.sroa.311.0.insert.ext.i = shl nuw i64 %.sroa.311.0.i, 16
  %.sroa.311.0.insert.shift.i = and i64 %.sroa.311.0.insert.ext.i, 16711680
  %64 = and i64 %53, -16711681
  %.sroa.010.0.insert.insert.i = or disjoint i64 %.sroa.311.0.insert.shift.i, %64
  store i64 %.sroa.010.0.insert.insert.i, ptr %51, align 8
  br label %65

65:                                               ; preds = %extend_span_with_token.exit, %47, %40, %31, %24, %13
  %.051 = phi ptr [ %5, %extend_span_with_token.exit ], [ %50, %47 ], [ %41, %40 ], [ %34, %31 ], [ %25, %24 ], [ %16, %13 ]
  ret ptr %.051
}